; Function Attrs: nounwind uwtable
define dso_local void @PyErr_SetExcInfo(ptr noundef %0, ptr noundef %1, ptr noundef %2) local_unnamed_addr #0 {
  %4 = tail call align 8 ptr @llvm.threadlocal.address.p0(ptr align 8 @_Py_tss_tstate)
  %5 = load ptr, ptr %4, align 8, !tbaa !25
  %6 = getelementptr inbounds nuw i8, ptr %5, i64 120
  %7 = load ptr, ptr %6, align 8, !tbaa !38
  %8 = load ptr, ptr %7, align 8, !tbaa !24
  %9 = icmp eq ptr %1, @_Py_NoneStruct
  %10 = select i1 %9, ptr null, ptr %1
  %.not.i.i.i.i = icmp eq ptr %10, null
  br i1 %.not.i.i.i.i, label %_Py_XNewRef.exit.i.i, label %11

11:                                               ; preds = %3
  %12 = load i32, ptr %10, align 8, !tbaa !20
  %13 = icmp slt i32 %12, 0
  br i1 %13, label %_Py_XNewRef.exit.i.i, label %14

14:                                               ; preds = %11
  %15 = add nuw i32 %12, 1
  store i32 %15, ptr %10, align 8, !tbaa !20
  br label %_Py_XNewRef.exit.i.i

_Py_XNewRef.exit.i.i:                             ; preds = %14, %11, %3
  store ptr %10, ptr %7, align 8, !tbaa !24
  %.not.i.i.i = icmp eq ptr %8, null
  br i1 %.not.i.i.i, label %PyErr_SetHandledException.exit, label %16

16:                                               ; preds = %_Py_XNewRef.exit.i.i
  %17 = load i32, ptr %8, align 8, !tbaa !20
  %.not.i.i6.i.i = icmp sgt i32 %17, -1
  br i1 %.not.i.i6.i.i, label %18, label %PyErr_SetHandledException.exit

18:                                               ; preds = %16
  %19 = add nsw i32 %17, -1
  store i32 %19, ptr %8, align 8, !tbaa !20
  %20 = icmp eq i32 %19, 0
  br i1 %20, label %21, label %PyErr_SetHandledException.exit

21:                                               ; preds = %18
  tail call void @_Py_Dealloc(ptr noundef nonnull %8) #17
  br label %PyErr_SetHandledException.exit

PyErr_SetHandledException.exit:                   ; preds = %_Py_XNewRef.exit.i.i, %16, %18, %21
  %.not.i = icmp eq ptr %1, null
  br i1 %.not.i, label %Py_XDECREF.exit, label %22

22:                                               ; preds = %PyErr_SetHandledException.exit
  %23 = load i32, ptr %1, align 8, !tbaa !20
  %.not.i.i = icmp sgt i32 %23, -1
  br i1 %.not.i.i, label %24, label %Py_XDECREF.exit

24:                                               ; preds = %22
  %25 = add nsw i32 %23, -1
  store i32 %25, ptr %1, align 8, !tbaa !20
  %26 = icmp eq i32 %25, 0
  br i1 %26, label %27, label %Py_XDECREF.exit

27:                                               ; preds = %24
  tail call void @_Py_Dealloc(ptr noundef nonnull %1) #17
  br label %Py_XDECREF.exit

Py_XDECREF.exit:                                  ; preds = %PyErr_SetHandledException.exit, %22, %24, %27
  %.not.i4 = icmp eq ptr %0, null
  br i1 %.not.i4, label %Py_XDECREF.exit6, label %28

28:                                               ; preds = %Py_XDECREF.exit
  %29 = load i32, ptr %0, align 8, !tbaa !20
  %.not.i.i5 = icmp sgt i32 %29, -1
  br i1 %.not.i.i5, label %30, label %Py_XDECREF.exit6

30:                                               ; preds = %28
  %31 = add nsw i32 %29, -1
  store i32 %31, ptr %0, align 8, !tbaa !20
  %32 = icmp eq i32 %31, 0
  br i1 %32, label %33, label %Py_XDECREF.exit6

33:                                               ; preds = %30
  tail call void @_Py_Dealloc(ptr noundef nonnull %0) #17
  br label %Py_XDECREF.exit6

Py_XDECREF.exit6:                                 ; preds = %Py_XDECREF.exit, %28, %30, %33
  %.not.i7 = icmp eq ptr %2, null
  br i1 %.not.i7, label %Py_XDECREF.exit9, label %34

34:                                               ; preds = %Py_XDECREF.exit6
  %35 = load i32, ptr %2, align 8, !tbaa !20
  %.not.i.i8 = icmp sgt i32 %35, -1
  br i1 %.not.i.i8, label %36, label %Py_XDECREF.exit9

36:                                               ; preds = %34
  %37 = add nsw i32 %35, -1
  store i32 %37, ptr %2, align 8, !tbaa !20
  %38 = icmp eq i32 %37, 0
  br i1 %38, label %39, label %Py_XDECREF.exit9

39:                                               ; preds = %36
  tail call void @_Py_Dealloc(ptr noundef nonnull %2) #17
  br label %Py_XDECREF.exit9

Py_XDECREF.exit9:                                 ; preds = %Py_XDECREF.exit6, %34, %36, %39
  ret void
}